###############################################################################
#                                                                             #
# IAR C/C++ Compiler V8.10.1.40194/W32 for 8051         28/Feb/2020  11:32:46 #
# Copyright 2004-2011 IAR Systems AB.                                         #
#                                                                             #
#    Core               =  plain                                              #
#    Code model         =  banked                                             #
#    Data model         =  large                                              #
#    Calling convention =  xdata reentrant                                    #
#    Constant location  =  data_rom                                           #
#    Dptr setup         =  1,16                                               #
#    Source file        =  D:\zigbee程序\串口\ZStack-CC2530-2.5.1a\Projects\z #
#                          stack\Samples\SampleApp\Source\SampleApp.c         #
#    Command line       =  -f D:\zigbee程序\串口\ZStack-CC2530-2.5.1a\Project #
#                          s\zstack\Samples\SampleApp\CC2530DB\..\..\..\Tools #
#                          \CC2530DB\f8wCoord.cfg (-DCPU32MHZ                 #
#                          -DROOT=__near_func -DMAC_CFG_APP_PENDING_QUEUE=TRU #
#                          E -DMAC_CFG_TX_DATA_MAX=5 -DMAC_CFG_TX_MAX=8       #
#                          -DMAC_CFG_RX_MAX=5 -DZDO_COORDINATOR -DRTR_NWK)    #
#                          -f D:\zigbee程序\串口\ZStack-CC2530-2.5.1a\Project #
#                          s\zstack\Samples\SampleApp\CC2530DB\..\..\..\Tools #
#                          \CC2530DB\f8wConfig.cfg (-DZIGBEEPRO -DSECURE=0    #
#                          -DZG_SECURE_DYNAMIC=0 -DREFLECTOR                  #
#                          -DDEFAULT_CHANLIST=0x00000800                      #
#                          -DZDAPP_CONFIG_PAN_ID=0xFFFF                       #
#                          -DNWK_START_DELAY=100 -DEXTENDED_JOINING_RANDOM_MA #
#                          SK=0x007F -DBEACON_REQUEST_DELAY=100               #
#                          -DBEACON_REQ_DELAY_MASK=0x00FF                     #
#                          -DLINK_STATUS_JITTER_MASK=0x007F                   #
#                          -DROUTE_EXPIRY_TIME=30 -DAPSC_ACK_WAIT_DURATION_PO #
#                          LLED=3000 -DNWK_INDIRECT_MSG_TIMEOUT=7             #
#                          -DMAX_RREQ_ENTRIES=8 -DAPSC_MAX_FRAME_RETRIES=3    #
#                          -DNWK_MAX_DATA_RETRIES=2                           #
#                          -DMAX_POLL_FAILURE_RETRIES=2 -DMAX_BCAST=9         #
#                          -DAPS_MAX_GROUPS=16 -DMAX_RTG_ENTRIES=40           #
#                          -DNWK_MAX_BINDING_ENTRIES=4                        #
#                          -DMAX_BINDING_CLUSTER_IDS=4 "-DDEFAULT_KEY={0x01,  #
#                          0x03, 0x05, 0x07, 0x09, 0x0B, 0x0D, 0x0F, 0x00,    #
#                          0x02, 0x04, 0x06, 0x08, 0x0A, 0x0C, 0x0D}"         #
#                          -DMAC_MAX_FRAME_SIZE=116                           #
#                          -DZDNWKMGR_MIN_TRANSMISSIONS=20 "-DCONST=const     #
#                          __code" -DGENERIC=__generic                        #
#                          -DRFD_RCVC_ALWAYS_ON=FALSE -DPOLL_RATE=1000        #
#                          -DQUEUED_POLL_RATE=100 -DRESPONSE_POLL_RATE=100)   #
#                          -DREJOIN_POLL_RATE=440 D:\zigbee程序\串口\ZStack-C #
#                          C2530-2.5.1a\Projects\zstack\Samples\SampleApp\Sou #
#                          rce\SampleApp.c -D ZTOOL_P1 -D MT_TASK -D          #
#                          MT_SYS_FUNC -D MT_ZDO_FUNC -D LCD_SUPPORTED=DEBUG  #
#                          -lC D:\zigbee程序\串口\ZStack-CC2530-2.5.1a\Projec #
#                          ts\zstack\Samples\SampleApp\CC2530DB\CoordinatorEB #
#                          \List\ -lA D:\zigbee程序\串口\ZStack-CC2530-2.5.1a #
#                          \Projects\zstack\Samples\SampleApp\CC2530DB\Coordi #
#                          natorEB\List\ --diag_suppress Pe001,Pa010 -o       #
#                          D:\zigbee程序\串口\ZStack-CC2530-2.5.1a\Projects\z #
#                          stack\Samples\SampleApp\CC2530DB\CoordinatorEB\Obj #
#                          \ -e --no_code_motion --debug --core=plain         #
#                          --dptr=16,1 --data_model=large                     #
#                          --code_model=banked --calling_convention=xdata_ree #
#                          ntrant --place_constants=data_rom                  #
#                          --nr_virtual_regs 16 -I D:\zigbee程序\串口\ZStack- #
#                          CC2530-2.5.1a\Projects\zstack\Samples\SampleApp\CC #
#                          2530DB\ -I D:\zigbee程序\串口\ZStack-CC2530-2.5.1a #
#                          \Projects\zstack\Samples\SampleApp\CC2530DB\..\Sou #
#                          rce\ -I D:\zigbee程序\串口\ZStack-CC2530-2.5.1a\Pr #
#                          ojects\zstack\Samples\SampleApp\CC2530DB\..\..\..\ #
#                          ZMain\TI2530DB\ -I D:\zigbee程序\串口\ZStack-CC253 #
#                          0-2.5.1a\Projects\zstack\Samples\SampleApp\CC2530D #
#                          B\..\..\..\..\..\Components\hal\include\ -I        #
#                          D:\zigbee程序\串口\ZStack-CC2530-2.5.1a\Projects\z #
#                          stack\Samples\SampleApp\CC2530DB\..\..\..\..\..\Co #
#                          mponents\hal\target\CC2530EB\ -I                   #
#                          D:\zigbee程序\串口\ZStack-CC2530-2.5.1a\Projects\z #
#                          stack\Samples\SampleApp\CC2530DB\..\..\..\..\..\Co #
#                          mponents\mac\include\ -I                           #
#                          D:\zigbee程序\串口\ZStack-CC2530-2.5.1a\Projects\z #
#                          stack\Samples\SampleApp\CC2530DB\..\..\..\..\..\Co #
#                          mponents\mac\high_level\ -I                        #
#                          D:\zigbee程序\串口\ZStack-CC2530-2.5.1a\Projects\z #
#                          stack\Samples\SampleApp\CC2530DB\..\..\..\..\..\Co #
#                          mponents\mac\low_level\srf04\ -I                   #
#                          D:\zigbee程序\串口\ZStack-CC2530-2.5.1a\Projects\z #
#                          stack\Samples\SampleApp\CC2530DB\..\..\..\..\..\Co #
#                          mponents\mac\low_level\srf04\single_chip\ -I       #
#                          D:\zigbee程序\串口\ZStack-CC2530-2.5.1a\Projects\z #
#                          stack\Samples\SampleApp\CC2530DB\..\..\..\..\..\Co #
#                          mponents\mt\ -I D:\zigbee程序\串口\ZStack-CC2530-2 #
#                          .5.1a\Projects\zstack\Samples\SampleApp\CC2530DB\. #
#                          .\..\..\..\..\Components\osal\include\ -I          #
#                          D:\zigbee程序\串口\ZStack-CC2530-2.5.1a\Projects\z #
#                          stack\Samples\SampleApp\CC2530DB\..\..\..\..\..\Co #
#                          mponents\services\saddr\ -I                        #
#                          D:\zigbee程序\串口\ZStack-CC2530-2.5.1a\Projects\z #
#                          stack\Samples\SampleApp\CC2530DB\..\..\..\..\..\Co #
#                          mponents\services\sdata\ -I                        #
#                          D:\zigbee程序\串口\ZStack-CC2530-2.5.1a\Projects\z #
#                          stack\Samples\SampleApp\CC2530DB\..\..\..\..\..\Co #
#                          mponents\stack\af\ -I D:\zigbee程序\串口\ZStack-CC #
#                          2530-2.5.1a\Projects\zstack\Samples\SampleApp\CC25 #
#                          30DB\..\..\..\..\..\Components\stack\nwk\ -I       #
#                          D:\zigbee程序\串口\ZStack-CC2530-2.5.1a\Projects\z #
#                          stack\Samples\SampleApp\CC2530DB\..\..\..\..\..\Co #
#                          mponents\stack\sapi\ -I D:\zigbee程序\串口\ZStack- #
#                          CC2530-2.5.1a\Projects\zstack\Samples\SampleApp\CC #
#                          2530DB\..\..\..\..\..\Components\stack\sec\ -I     #
#                          D:\zigbee程序\串口\ZStack-CC2530-2.5.1a\Projects\z #
#                          stack\Samples\SampleApp\CC2530DB\..\..\..\..\..\Co #
#                          mponents\stack\sys\ -I D:\zigbee程序\串口\ZStack-C #
#                          C2530-2.5.1a\Projects\zstack\Samples\SampleApp\CC2 #
#                          530DB\..\..\..\..\..\Components\stack\zdo\ -I      #
#                          D:\zigbee程序\串口\ZStack-CC2530-2.5.1a\Projects\z #
#                          stack\Samples\SampleApp\CC2530DB\..\..\..\..\..\Co #
#                          mponents\zmac\ -I D:\zigbee程序\串口\ZStack-CC2530 #
#                          -2.5.1a\Projects\zstack\Samples\SampleApp\CC2530DB #
#                          \..\..\..\..\..\Components\zmac\f8w\ -Ohz          #
#                          --require_prototypes                               #
#    List file          =  D:\zigbee程序\串口\ZStack-CC2530-2.5.1a\Projects\z #
#                          stack\Samples\SampleApp\CC2530DB\CoordinatorEB\Lis #
#                          t\SampleApp.lst                                    #
#    Object file        =  D:\zigbee程序\串口\ZStack-CC2530-2.5.1a\Projects\z #
#                          stack\Samples\SampleApp\CC2530DB\CoordinatorEB\Obj #
#                          \SampleApp.r51                                     #
#                                                                             #
#                                                                             #
###############################################################################

D:\zigbee程序\串口\ZStack-CC2530-2.5.1a\Projects\zstack\Samples\SampleApp\Source\SampleApp.c
      1          /**************************************************************************************************
      2            Filename:       SampleApp.c
      3            Revised:        $Date: 2009-03-18 15:56:27 -0700 (Wed, 18 Mar 2009) $
      4            Revision:       $Revision: 19453 $
      5          
      6            Description:    Sample Application (no Profile).
      7          
      8          
      9            Copyright 2007 Texas Instruments Incorporated. All rights reserved.
     10          
     11            IMPORTANT: Your use of this Software is limited to those specific rights
     12            granted under the terms of a software license agreement between the user
     13            who downloaded the software, his/her employer (which must be your employer)
     14            and Texas Instruments Incorporated (the "License").  You may not use this
     15            Software unless you agree to abide by the terms of the License. The License
     16            limits your use, and you acknowledge, that the Software may not be modified,
     17            copied or distributed unless embedded on a Texas Instruments microcontroller
     18            or used solely and exclusively in conjunction with a Texas Instruments radio
     19            frequency transceiver, which is integrated into your product.  Other than for
     20            the foregoing purpose, you may not use, reproduce, copy, prepare derivative
     21            works of, modify, distribute, perform, display or sell this Software and/or
     22            its documentation for any purpose.
     23          
     24            YOU FURTHER ACKNOWLEDGE AND AGREE THAT THE SOFTWARE AND DOCUMENTATION ARE
     25            PROVIDED AS IS?WITHOUT WARRANTY OF ANY KIND, EITHER EXPRESS OR IMPLIED,
     26            INCLUDING WITHOUT LIMITATION, ANY WARRANTY OF MERCHANTABILITY, TITLE,
     27            NON-INFRINGEMENT AND FITNESS FOR A PARTICULAR PURPOSE. IN NO EVENT SHALL
     28            TEXAS INSTRUMENTS OR ITS LICENSORS BE LIABLE OR OBLIGATED UNDER CONTRACT,
     29            NEGLIGENCE, STRICT LIABILITY, CONTRIBUTION, BREACH OF WARRANTY, OR OTHER
     30            LEGAL EQUITABLE THEORY ANY DIRECT OR INDIRECT DAMAGES OR EXPENSES
     31            INCLUDING BUT NOT LIMITED TO ANY INCIDENTAL, SPECIAL, INDIRECT, PUNITIVE
     32            OR CONSEQUENTIAL DAMAGES, LOST PROFITS OR LOST DATA, COST OF PROCUREMENT
     33            OF SUBSTITUTE GOODS, TECHNOLOGY, SERVICES, OR ANY CLAIMS BY THIRD PARTIES
     34            (INCLUDING BUT NOT LIMITED TO ANY DEFENSE THEREOF), OR OTHER SIMILAR COSTS.
     35          
     36            Should you have any questions regarding your right to use this Software,
     37            contact Texas Instruments Incorporated at www.TI.com.
     38          **************************************************************************************************/
     39          
     40          /*********************************************************************
     41            This application isn't intended to do anything useful, it is
     42            intended to be a simple example of an application's structure.
     43          
     44            This application sends it's messages either as broadcast or
     45            broadcast filtered group messages.  The other (more normal)
     46            message addressing is unicast.  Most of the other sample
     47            applications are written to support the unicast message model.
     48          
     49            Key control:
     50              SW1:  Sends a flash command to all devices in Group 1.
     51              SW2:  Adds/Removes (toggles) this device in and out
     52                    of Group 1.  This will enable and disable the
     53                    reception of the flash command.
     54          *********************************************************************/
     55          
     56          /*********************************************************************
     57           * INCLUDES
     58           */
     59          #include "OSAL.h"
     60          #include "ZGlobals.h"
     61          #include "AF.h"
     62          #include "aps_groups.h"
     63          #include "ZDApp.h"
     64          
     65          #include "SampleApp.h"
     66          #include "SampleAppHw.h"
     67          
     68          #include "OnBoard.h"
     69          
     70          /* HAL */
     71          #include "hal_lcd.h"
     72          #include "hal_led.h"
     73          #include "hal_key.h"
     74          #include "hal_uart.h"
     75          
     76          /*********************************************************************
     77           * MACROS
     78           */
     79          
     80          /*********************************************************************
     81           * CONSTANTS
     82           */
     83          
     84          /*********************************************************************
     85           * TYPEDEFS
     86           */
     87          
     88          /*********************************************************************
     89           * GLOBAL VARIABLES
     90           */
     91          
     92          // This list should be filled with Application specific Cluster IDs.

   \                                 In  segment XDATA_ROM_C, align 1
     93          const cId_t SampleApp_ClusterList[SAMPLEAPP_MAX_CLUSTERS] =
   \                     SampleApp_ClusterList:
   \   000000   0100         DW 1
   \   000002   0000         DW 0
     94          {
     95            SAMPLEAPP_CLUSTERID
     96          };
     97          

   \                                 In  segment XDATA_ROM_C, align 1
     98          const SimpleDescriptionFormat_t SampleApp_SimpleDesc =
   \                     SampleApp_SimpleDesc:
   \   000000   14           DB 20
   \   000001   080F         DW 3848
   \   000003   0100         DW 1
   \   000005   00           DB 0
   \   000006   02           DB 2
   \   000007   ....         DW SampleApp_ClusterList
   \   000009   02           DB 2
   \   00000A   ....         DW SampleApp_ClusterList
     99          {
    100            SAMPLEAPP_ENDPOINT,              //  int Endpoint;
    101            SAMPLEAPP_PROFID,                //  uint16 AppProfId[2];
    102            SAMPLEAPP_DEVICEID,              //  uint16 AppDeviceId[2];
    103            SAMPLEAPP_DEVICE_VERSION,        //  int   AppDevVer:4;
    104            SAMPLEAPP_FLAGS,                 //  int   AppFlags:4;
    105            SAMPLEAPP_MAX_CLUSTERS,          //  uint8  AppNumInClusters;
    106            (cId_t *)SampleApp_ClusterList,  //  uint8 *pAppInClusterList;
    107            SAMPLEAPP_MAX_CLUSTERS,          //  uint8  AppNumInClusters;
    108            (cId_t *)SampleApp_ClusterList   //  uint8 *pAppInClusterList;
    109          };
    110          
    111          // This is the Endpoint/Interface description.  It is defined here, but
    112          // filled-in in SampleApp_Init().  Another way to go would be to fill
    113          // in the structure here and make it a "const" (in code space).  The
    114          // way it's defined in this sample app it is define in RAM.

   \                                 In  segment XDATA_Z, align 1, keep-with-next
    115          endPointDesc_t SampleApp_epDesc;
   \                     SampleApp_epDesc:
   \   000000                DS 6
   \   000006                REQUIRE __INIT_XDATA_Z
    116          
    117          /*********************************************************************
    118           * EXTERNAL VARIABLES
    119           */
    120          
    121          /*********************************************************************
    122           * EXTERNAL FUNCTIONS
    123           */
    124          
    125          /*********************************************************************
    126           * LOCAL VARIABLES
    127           */

   \                                 In  segment XDATA_Z, align 1, keep-with-next
    128          uint8 SampleApp_TaskID;   // Task ID for internal task/event processing
   \                     SampleApp_TaskID:
   \   000000                DS 1
   \   000001                REQUIRE __INIT_XDATA_Z
    129                                    // This variable will be received when
    130                                    // SampleApp_Init() is called.

   \                                 In  segment XDATA_Z, align 1, keep-with-next
    131          devStates_t SampleApp_NwkState;
   \                     SampleApp_NwkState:
   \   000000                DS 1
   \   000001                REQUIRE __INIT_XDATA_Z
    132          

   \                                 In  segment XDATA_Z, align 1, keep-with-next
    133          uint8 SampleApp_TransID;  // This is the unique message ID (counter)
   \                     SampleApp_TransID:
   \   000000                DS 1
   \   000001                REQUIRE __INIT_XDATA_Z
    134          

   \                                 In  segment XDATA_Z, align 1, keep-with-next
    135          afAddrType_t SampleApp_Periodic_DstAddr;
   \                     SampleApp_Periodic_DstAddr:
   \   000000                DS 12
   \   00000C                REQUIRE __INIT_XDATA_Z

   \                                 In  segment XDATA_Z, align 1, keep-with-next
    136          afAddrType_t SampleApp_Flash_DstAddr;
   \                     SampleApp_Flash_DstAddr:
   \   000000                DS 12
   \   00000C                REQUIRE __INIT_XDATA_Z
    137          

   \                                 In  segment XDATA_Z, align 1, keep-with-next
    138          aps_Group_t SampleApp_Group;
   \                     SampleApp_Group:
   \   000000                DS 18
   \   000012                REQUIRE __INIT_XDATA_Z
    139          

   \                                 In  segment XDATA_Z, align 1, keep-with-next
    140          uint8 SampleAppPeriodicCounter = 0;
   \                     SampleAppPeriodicCounter:
   \   000000                DS 1
   \   000001                REQUIRE __INIT_XDATA_Z

   \                                 In  segment XDATA_Z, align 1, keep-with-next
    141          uint8 SampleAppFlashCounter = 0;
   \                     SampleAppFlashCounter:
   \   000000                DS 1
   \   000001                REQUIRE __INIT_XDATA_Z
    142          
    143          /*********************************************************************
    144           * LOCAL FUNCTIONS
    145           */
    146          void SampleApp_HandleKeys( uint8 shift, uint8 keys );
    147          void SampleApp_MessageMSGCB( afIncomingMSGPacket_t *pckt );
    148          void SampleApp_SendPeriodicMessage( void );
    149          void SampleApp_SendFlashMessage( uint16 flashTime );
    150          
    151          /*********************************************************************
    152           * NETWORK LAYER CALLBACKS
    153           */
    154          
    155          /*********************************************************************
    156           * PUBLIC FUNCTIONS
    157           */
    158          
    159          /*********************************************************************
    160           * @fn      SampleApp_Init
    161           *
    162           * @brief   Initialization function for the Generic App Task.
    163           *          This is called during initialization and should contain
    164           *          any application specific initialization (ie. hardware
    165           *          initialization/setup, table initialization, power up
    166           *          notificaiton ... ).
    167           *
    168           * @param   task_id - the ID assigned by OSAL.  This ID should be
    169           *                    used to send messages and set timers.
    170           *
    171           * @return  none
    172           */

   \                                 In  segment BANKED_CODE, align 1, keep-with-next
    173          void SampleApp_Init( uint8 task_id )
   \                     SampleApp_Init:
    174          {
   \   000000   74F5         MOV     A,#-0xb
   \   000002   12....       LCALL   ?BANKED_ENTER_XDATA
   \   000005                ; Saved register size: 11
   \   000005                ; Auto size: 0
   \   000005   E9           MOV     A,R1
    175            SampleApp_TaskID = task_id;
   \   000006   90....       MOV     DPTR,#SampleApp_TaskID
   \   000009   F0           MOVX    @DPTR,A
    176            SampleApp_NwkState = DEV_INIT;
   \   00000A   90....       MOV     DPTR,#SampleApp_NwkState
   \   00000D   7401         MOV     A,#0x1
   \   00000F   F0           MOVX    @DPTR,A
    177            SampleApp_TransID = 0;
   \   000010   90....       MOV     DPTR,#SampleApp_TransID
   \   000013   E4           CLR     A
   \   000014   F0           MOVX    @DPTR,A
    178          
    179            // Device hardware initialization can be added here or in main() (Zmain.c).
    180            // If the hardware is application specific - add it here.
    181            // If the hardware is other parts of the device add it in main().
    182          
    183           #if defined ( BUILD_ALL_DEVICES )
    184            // The "Demo" target is setup to have BUILD_ALL_DEVICES and HOLD_AUTO_START
    185            // We are looking at a jumper (defined in SampleAppHw.c) to be jumpered
    186            // together - if they are - we will start up a coordinator. Otherwise,
    187            // the device will start as a router.
    188            if ( readCoordinatorJumper() )
    189              zgDeviceLogicalType = ZG_DEVICETYPE_COORDINATOR;
    190            else
    191              zgDeviceLogicalType = ZG_DEVICETYPE_ROUTER;
    192          #endif // BUILD_ALL_DEVICES
    193          
    194          #if defined ( HOLD_AUTO_START )
    195            // HOLD_AUTO_START is a compile option that will surpress ZDApp
    196            //  from starting the device and wait for the application to
    197            //  start the device.
    198            ZDOInitDevice(0);
    199          #endif
    200          
    201          
    202          
    203            // Fill out the endpoint description.
    204            SampleApp_epDesc.endPoint = SAMPLEAPP_ENDPOINT;
   \   000015   90....       MOV     DPTR,#SampleApp_epDesc
   \   000018   7414         MOV     A,#0x14
   \   00001A   F0           MOVX    @DPTR,A
    205            SampleApp_epDesc.task_id = &SampleApp_TaskID;
   \   00001B   A3           INC     DPTR
   \   00001C   74..         MOV     A,#SampleApp_TaskID & 0xff
   \   00001E   F0           MOVX    @DPTR,A
   \   00001F   A3           INC     DPTR
   \   000020   74..         MOV     A,#(SampleApp_TaskID >> 8) & 0xff
   \   000022   F0           MOVX    @DPTR,A
    206            SampleApp_epDesc.simpleDesc
    207                      = (SimpleDescriptionFormat_t *)&SampleApp_SimpleDesc;
   \   000023   A3           INC     DPTR
   \   000024   74..         MOV     A,#SampleApp_SimpleDesc & 0xff
   \   000026   F0           MOVX    @DPTR,A
   \   000027   A3           INC     DPTR
   \   000028   74..         MOV     A,#(SampleApp_SimpleDesc >> 8) & 0xff
   \   00002A   F0           MOVX    @DPTR,A
    208            SampleApp_epDesc.latencyReq = noLatencyReqs;
   \   00002B   A3           INC     DPTR
   \   00002C   E4           CLR     A
   \   00002D   F0           MOVX    @DPTR,A
    209          
    210            // Register the endpoint description with the AF
    211            afRegister( &SampleApp_epDesc );
   \   00002E                ; Setup parameters for call to function afRegister
   \   00002E   7A..         MOV     R2,#SampleApp_epDesc & 0xff
   \   000030   7B..         MOV     R3,#(SampleApp_epDesc >> 8) & 0xff
   \   000032   12....       LCALL   ??afRegister?relay
    212          
    213            // Register for all key events - This app will handle all key events
    214            RegisterForKeys( SampleApp_TaskID );
   \   000035                ; Setup parameters for call to function RegisterForKeys
   \   000035   90....       MOV     DPTR,#SampleApp_TaskID
   \   000038   E0           MOVX    A,@DPTR
   \   000039   F9           MOV     R1,A
   \   00003A   12....       LCALL   ??RegisterForKeys?relay
    215          
    216            // By default, all devices start out in Group 1
    217            SampleApp_Group.ID = 0x0001;
   \   00003D   90....       MOV     DPTR,#SampleApp_Group
   \   000040   7401         MOV     A,#0x1
   \   000042   F0           MOVX    @DPTR,A
   \   000043   A3           INC     DPTR
   \   000044   E4           CLR     A
   \   000045   F0           MOVX    @DPTR,A
    218            osal_memcpy( SampleApp_Group.name, "Group 1", 7  );
   \   000046                ; Setup parameters for call to function osal_memcpy
   \   000046   75....       MOV     ?V0 + 0,#`?<Constant "Group 1">` & 0xff
   \   000049   75....       MOV     ?V0 + 1,#(`?<Constant "Group 1">` >> 8) & 0xff
   \   00004C   F5..         MOV     ?V0 + 2,A
   \   00004E   78..         MOV     R0,#?V0 + 0
   \   000050   12....       LCALL   ?PUSH_XSTACK_I_THREE
   \   000053   7C07         MOV     R4,#0x7
   \   000055   7D00         MOV     R5,#0x0
   \   000057   7A..         MOV     R2,#(SampleApp_Group + 2) & 0xff
   \   000059   7B..         MOV     R3,#((SampleApp_Group + 2) >> 8) & 0xff
   \   00005B   12....       LCALL   ??osal_memcpy?relay
   \   00005E   7403         MOV     A,#0x3
   \   000060   12....       LCALL   ?DEALLOC_XSTACK8
    219            aps_AddGroup( SAMPLEAPP_ENDPOINT, &SampleApp_Group );
   \   000063                ; Setup parameters for call to function aps_AddGroup
   \   000063   7A..         MOV     R2,#SampleApp_Group & 0xff
   \   000065   7B..         MOV     R3,#(SampleApp_Group >> 8) & 0xff
   \   000067   7914         MOV     R1,#0x14
   \   000069   12....       LCALL   ??aps_AddGroup?relay
    220          
    221          #if defined ( LCD_SUPPORTED )
    222            HalLcdWriteString( "SampleApp", HAL_LCD_LINE_1 );
   \   00006C                ; Setup parameters for call to function HalLcdWriteString
   \   00006C   7901         MOV     R1,#0x1
   \   00006E   7A..         MOV     R2,#`?<Constant "SampleApp">` & 0xff
   \   000070   7B..         MOV     R3,#(`?<Constant "SampleApp">` >> 8) & 0xff
   \   000072   12....       LCALL   ??HalLcdWriteString?relay
    223          #endif
    224          }
   \   000075   7F03         MOV     R7,#0x3
   \   000077   02....       LJMP    ?BANKED_LEAVE_XDATA
    225          
    226          /*********************************************************************
    227           * @fn      SampleApp_ProcessEvent
    228           *
    229           * @brief   Generic Application Task event processor.  This function
    230           *          is called to process all events for the task.  Events
    231           *          include timers, messages and any other user defined events.
    232           *
    233           * @param   task_id  - The OSAL assigned task ID.
    234           * @param   events - events to process.  This is a bit map and can
    235           *                   contain more than one event.
    236           *
    237           * @return  none
    238           */

   \                                 In  segment BANKED_CODE, align 1, keep-with-next
    239          uint16 SampleApp_ProcessEvent( uint8 task_id, uint16 events )
   \                     SampleApp_ProcessEvent:
    240          {
   \   000000   74F4         MOV     A,#-0xc
   \   000002   12....       LCALL   ?BANKED_ENTER_XDATA
   \   000005                ; Saved register size: 12
   \   000005                ; Auto size: 0
   \   000005   8A..         MOV     ?V0 + 0,R2
   \   000007   8B..         MOV     ?V0 + 1,R3
    241            afIncomingMSGPacket_t *MSGpkt;
    242            (void)task_id;  // Intentionally unreferenced parameter
    243          
    244            if ( events & SYS_EVENT_MSG )
   \   000009   EB           MOV     A,R3
   \   00000A   5480         ANL     A,#0x80
   \   00000C   604D         JZ      ??SampleApp_ProcessEvent_0
    245            {
    246              MSGpkt = (afIncomingMSGPacket_t *)osal_msg_receive( SampleApp_TaskID );
   \   00000E                ; Setup parameters for call to function osal_msg_receive
   \   00000E   800D         SJMP    ??SampleApp_ProcessEvent_1
    247              while ( MSGpkt )
    248              {
    249                switch ( MSGpkt->hdr.event )
    250                {
    251                  // Received when a key is pressed
    252                  case KEY_CHANGE:
    253                    SampleApp_HandleKeys( ((keyChange_t *)MSGpkt)->state, ((keyChange_t *)MSGpkt)->keys );
    254                    break;
    255          
    256                  // Received when a messages is received (OTA) for this endpoint
    257                  case AF_INCOMING_MSG_CMD:
    258                    SampleApp_MessageMSGCB( MSGpkt );
    259                    break;
    260          
    261                  // Received whenever the device changes state in the network
    262                  case ZDO_STATE_CHANGE:
    263                    SampleApp_NwkState = (devStates_t)(MSGpkt->hdr.status);
   \                     ??SampleApp_ProcessEvent_2:
   \   000010   A3           INC     DPTR
   \   000011   E0           MOVX    A,@DPTR
   \   000012   90....       MOV     DPTR,#SampleApp_NwkState
   \   000015   F0           MOVX    @DPTR,A
    264                    if ( (SampleApp_NwkState == DEV_ZB_COORD)
    265                        || (SampleApp_NwkState == DEV_ROUTER)
    266                        || (SampleApp_NwkState == DEV_END_DEVICE) )
    267                    {
    268                      // Start sending the periodic message in a regular interval.
    269          
    270                    }
    271                    else
    272                    {
    273                      // Device is no longer in the network
    274                    }
    275                    break;
    276          
    277                  default:
    278                    break;
    279                }
    280          
    281                // Release the memory
    282                osal_msg_deallocate( (uint8 *)MSGpkt );
   \                     ??SampleApp_ProcessEvent_3:
   \   000016                ; Setup parameters for call to function osal_msg_deallocate
   \   000016   EE           MOV     A,R6
   \   000017   FA           MOV     R2,A
   \   000018   EF           MOV     A,R7
   \   000019   FB           MOV     R3,A
   \   00001A   12....       LCALL   ??osal_msg_deallocate?relay
    283          
    284                // Next - if one is available
    285                MSGpkt = (afIncomingMSGPacket_t *)osal_msg_receive( SampleApp_TaskID );
   \   00001D                ; Setup parameters for call to function osal_msg_receive
   \                     ??SampleApp_ProcessEvent_1:
   \   00001D   90....       MOV     DPTR,#SampleApp_TaskID
   \   000020   E0           MOVX    A,@DPTR
   \   000021   F9           MOV     R1,A
   \   000022   12....       LCALL   ??osal_msg_receive?relay
   \   000025   8A..         MOV     ?V0 + 2,R2
   \   000027   8B..         MOV     ?V0 + 3,R3
   \   000029   AE..         MOV     R6,?V0 + 2
   \   00002B   AF..         MOV     R7,?V0 + 3
   \   00002D   EE           MOV     A,R6
   \   00002E   4F           ORL     A,R7
   \   00002F   6021         JZ      ??SampleApp_ProcessEvent_4
   \   000031   8E82         MOV     DPL,R6
   \   000033   8F83         MOV     DPH,R7
   \   000035   E0           MOVX    A,@DPTR
   \   000036   2440         ADD     A,#0x40
   \   000038   6006         JZ      ??SampleApp_ProcessEvent_5
   \   00003A   24EF         ADD     A,#-0x11
   \   00003C   60D2         JZ      ??SampleApp_ProcessEvent_2
   \   00003E   80D6         SJMP    ??SampleApp_ProcessEvent_3
   \                     ??SampleApp_ProcessEvent_5:
   \   000040                ; Setup parameters for call to function SampleApp_HandleKeys
   \   000040   A3           INC     DPTR
   \   000041   A3           INC     DPTR
   \   000042   A3           INC     DPTR
   \   000043   E0           MOVX    A,@DPTR
   \   000044   FA           MOV     R2,A
   \   000045   8E82         MOV     DPL,R6
   \   000047   8F83         MOV     DPH,R7
   \   000049   A3           INC     DPTR
   \   00004A   A3           INC     DPTR
   \   00004B   E0           MOVX    A,@DPTR
   \   00004C   F9           MOV     R1,A
   \   00004D   12....       LCALL   ??SampleApp_HandleKeys?relay
   \   000050   80C4         SJMP    ??SampleApp_ProcessEvent_3
    286              }
    287          
    288              // return unprocessed events
    289              return (events ^ SYS_EVENT_MSG);
   \                     ??SampleApp_ProcessEvent_4:
   \   000052   AA..         MOV     R2,?V0 + 0
   \   000054   E5..         MOV     A,?V0 + 1
   \   000056   6480         XRL     A,#0x80
   \   000058   FB           MOV     R3,A
   \   000059   8004         SJMP    ??SampleApp_ProcessEvent_6
    290            }
    291          
    292            // Send a message out - This event is generated by a timer
    293            //  (setup in SampleApp_Init()).
    294          
    295            // Discard unknown events
    296            return 0;
   \                     ??SampleApp_ProcessEvent_0:
   \   00005B   7A00         MOV     R2,#0x0
   \   00005D   7B00         MOV     R3,#0x0
   \                     ??SampleApp_ProcessEvent_6:
   \   00005F   7F04         MOV     R7,#0x4
   \   000061   02....       LJMP    ?BANKED_LEAVE_XDATA
    297          }
    298          
    299          /*********************************************************************
    300           * Event Generation Functions
    301           */
    302          /*********************************************************************
    303           * @fn      SampleApp_HandleKeys
    304           *
    305           * @brief   Handles all key events for this device.
    306           *
    307           * @param   shift - true if in shift/alt.
    308           * @param   keys - bit field for key events. Valid entries:
    309           *                 HAL_KEY_SW_2
    310           *                 HAL_KEY_SW_1
    311           *
    312           * @return  none
    313           */
    314          /*********************************************************************
    315           * LOCAL FUNCTIONS
    316           */
    317          
    318          /*********************************************************************
    319           * @fn      SampleApp_MessageMSGCB
    320           *
    321           * @brief   Data message processor callback.  This function processes
    322           *          any incoming data - probably from other devices.  So, based
    323           *          on cluster ID, perform the intended action.
    324           *
    325           * @param   none
    326           *
    327           * @return  none
    328           */

   \                                 In  segment BANKED_CODE, align 1, keep-with-next
    329          void SampleApp_MessageMSGCB( afIncomingMSGPacket_t *pkt )
   \                     SampleApp_MessageMSGCB:
    330          {
   \   000000                ; Saved register size: 0
   \   000000                ; Auto size: 0
    331            uint16 flashTime;
                          ^
Warning[Pe177]: variable "flashTime" was declared but never referenced
    332          
    333            switch ( pkt->clusterId )
    334            {
    335              case SAMPLEAPP_CLUSTERID:
    336                break;
    337          
    338          
    339            }
    340          }
   \   000000   02....       LJMP    ?BRET
    341          
    342          /*********************************************************************
    343           * @fn      SampleApp_SendPeriodicMessage
    344           *
    345           * @brief   Send the periodic message.
    346           *
    347           * @param   none
    348           *
    349           * @return  none
    350           */

   \                                 In  segment BANKED_CODE, align 1, keep-with-next
    351          void SampleApp_SendPeriodicMessage( void )
   \                     SampleApp_SendPeriodicMessage:
    352          {
   \   000000   74F6         MOV     A,#-0xa
   \   000002   12....       LCALL   ?BANKED_ENTER_XDATA
   \   000005                ; Saved register size: 10
   \   000005                ; Auto size: 0
    353            if ( AF_DataRequest( &SampleApp_Periodic_DstAddr, &SampleApp_epDesc,
    354                                 SAMPLEAPP_CLUSTERID,
    355                                 1,
    356                                 (uint8*)&SampleAppPeriodicCounter,
    357                                 &SampleApp_TransID,
    358                                 AF_DISCV_ROUTE,
    359                                 AF_DEFAULT_RADIUS ) == afStatus_SUCCESS )
   \   000005                ; Setup parameters for call to function AF_DataRequest
   \   000005   75..1E       MOV     ?V0 + 0,#0x1e
   \   000008   78..         MOV     R0,#?V0 + 0
   \   00000A   12....       LCALL   ?PUSH_XSTACK_I_ONE
   \   00000D   75....       MOV     ?V0 + 0,#SampleApp_TransID & 0xff
   \   000010   75....       MOV     ?V0 + 1,#(SampleApp_TransID >> 8) & 0xff
   \   000013   78..         MOV     R0,#?V0 + 0
   \   000015   12....       LCALL   ?PUSH_XSTACK_I_TWO
   \   000018   75....       MOV     ?V0 + 0,#SampleAppPeriodicCounter & 0xff
   \   00001B   75....       MOV     ?V0 + 1,#(SampleAppPeriodicCounter >> 8) & 0xff
   \   00001E   78..         MOV     R0,#?V0 + 0
   \   000020   12....       LCALL   ?PUSH_XSTACK_I_TWO
   \   000023   75..01       MOV     ?V0 + 0,#0x1
   \   000026   75..00       MOV     ?V0 + 1,#0x0
   \   000029   78..         MOV     R0,#?V0 + 0
   \   00002B   12....       LCALL   ?PUSH_XSTACK_I_TWO
   \   00002E   78..         MOV     R0,#?V0 + 0
   \   000030   12....       LCALL   ?PUSH_XSTACK_I_TWO
   \   000033   7920         MOV     R1,#0x20
   \   000035   7C..         MOV     R4,#SampleApp_epDesc & 0xff
   \   000037   7D..         MOV     R5,#(SampleApp_epDesc >> 8) & 0xff
   \   000039   7A..         MOV     R2,#SampleApp_Periodic_DstAddr & 0xff
   \   00003B   7B..         MOV     R3,#(SampleApp_Periodic_DstAddr >> 8) & 0xff
   \   00003D   12....       LCALL   ??AF_DataRequest?relay
   \   000040   7409         MOV     A,#0x9
   \   000042   12....       LCALL   ?DEALLOC_XSTACK8
    360            {
    361            }
    362            else
    363            {
    364              // Error occurred in request to send.
    365            }
    366          }
   \   000045   7F02         MOV     R7,#0x2
   \   000047   02....       LJMP    ?BANKED_LEAVE_XDATA
    367          
    368          /*********************************************************************
    369           * @fn      SampleApp_SendFlashMessage
    370           *
    371           * @brief   Send the flash message to group 1.
    372           *
    373           * @param   flashTime - in milliseconds
    374           *
    375           * @return  none
    376           */

   \                                 In  segment BANKED_CODE, align 1, keep-with-next
    377          void SampleApp_SendFlashMessage( uint16 flashTime )
   \                     SampleApp_SendFlashMessage:
    378          {
   \   000000   C082         PUSH    DPL
   \   000002   C083         PUSH    DPH
   \   000004                ; Saved register size: 2
   \   000004                ; Auto size: 0
    379            uint8 buffer[3];
                         ^
Warning[Pe550]: variable "buffer" was set but never used
    380            buffer[0] = (uint8)(SampleAppFlashCounter++);
   \   000004   90....       MOV     DPTR,#SampleAppFlashCounter
   \   000007   E0           MOVX    A,@DPTR
   \   000008   04           INC     A
   \   000009   F0           MOVX    @DPTR,A
    381            buffer[1] = LO_UINT16( flashTime );
    382            buffer[2] = HI_UINT16( flashTime );
    383          
    384          }
   \   00000A   D083         POP     DPH
   \   00000C   D082         POP     DPL
   \   00000E   02....       LJMP    ?BRET

   \                                 In  segment BANK_RELAYS, align 1
   \                     ??SampleApp_Init?relay:
   \   000000   12....       LCALL   ?BDISPATCH
   \   000003   ......       DC24    SampleApp_Init

   \                                 In  segment BANK_RELAYS, align 1
   \                     ??SampleApp_ProcessEvent?relay:
   \   000000   12....       LCALL   ?BDISPATCH
   \   000003   ......       DC24    SampleApp_ProcessEvent

   \                                 In  segment BANK_RELAYS, align 1
   \                     ??SampleApp_MessageMSGCB?relay:
   \   000000   12....       LCALL   ?BDISPATCH
   \   000003   ......       DC24    SampleApp_MessageMSGCB

   \                                 In  segment BANK_RELAYS, align 1
   \                     ??SampleApp_SendPeriodicMessage?relay:
   \   000000   12....       LCALL   ?BDISPATCH
   \   000003   ......       DC24    SampleApp_SendPeriodicMessage

   \                                 In  segment BANK_RELAYS, align 1
   \                     ??SampleApp_SendFlashMessage?relay:
   \   000000   12....       LCALL   ?BDISPATCH
   \   000003   ......       DC24    SampleApp_SendFlashMessage

   \                                 In  segment XDATA_ROM_C, align 1
   \                     `?<Constant "Group 1">`:
   \   000000   47726F75     DB "Group 1"
   \            70203100

   \                                 In  segment XDATA_ROM_C, align 1
   \                     `?<Constant "SampleApp">`:
   \   000000   53616D70     DB "SampleApp"
   \            6C654170
   \            7000    
    385          
    386          /*********************************************************************
    387          *********************************************************************/

   Maximum stack usage in bytes:

     Function                      ISTACK PSTACK XSTACK
     --------                      ------ ------ ------
     SampleApp_Init                    0      0     14
       -> afRegister                   0      0     22
       -> RegisterForKeys              0      0     22
       -> osal_memcpy                  0      0     28
       -> aps_AddGroup                 0      0     22
       -> HalLcdWriteString            0      0     22
     SampleApp_MessageMSGCB            0      0      0
     SampleApp_ProcessEvent            0      0     12
       -> osal_msg_receive             0      0     24
       -> osal_msg_deallocate          0      0     24
       -> osal_msg_receive             0      0     24
       -> SampleApp_HandleKeys         0      0     24
     SampleApp_SendFlashMessage        2      0      0
     SampleApp_SendPeriodicMessage     0      0     19
       -> AF_DataRequest               0      0     38


   Segment part sizes:

     Function/Label                        Bytes
     --------------                        -----
     SampleApp_ClusterList                    4
     SampleApp_SimpleDesc                    12
     SampleApp_epDesc                         6
     SampleApp_TaskID                         1
     SampleApp_NwkState                       1
     SampleApp_TransID                        1
     SampleApp_Periodic_DstAddr              12
     SampleApp_Flash_DstAddr                 12
     SampleApp_Group                         18
     SampleAppPeriodicCounter                 1
     SampleAppFlashCounter                    1
     SampleApp_Init                         122
     SampleApp_ProcessEvent                 100
     SampleApp_MessageMSGCB                   3
     SampleApp_SendPeriodicMessage           74
     SampleApp_SendFlashMessage              17
     ??SampleApp_Init?relay                   6
     ??SampleApp_ProcessEvent?relay           6
     ??SampleApp_MessageMSGCB?relay           6
     ??SampleApp_SendPeriodicMessage?relay    6
     ??SampleApp_SendFlashMessage?relay       6
     ?<Constant "Group 1">                    8
     ?<Constant "SampleApp">                 10

 
 316 bytes in segment BANKED_CODE
  30 bytes in segment BANK_RELAYS
  34 bytes in segment XDATA_ROM_C
  53 bytes in segment XDATA_Z
 
 346 bytes of CODE  memory
  34 bytes of CONST memory
  53 bytes of XDATA memory

Errors: none
Warnings: 2
